LIBRARY   AF_func
EXPORTS  
copy=?copy@AFire@@SAXAEBVarray@af@@AEAV23@_K@Z
printh=?printh@AFire@@SAXPEAM_K@Z
sumaaf=?sumaaf@AFire@@SAXPEAPEAXPEAX1@Z 
findk=?find_kernel_test@AFire@@SAPEADPEBD@Z 
helpk=?helpk@AFire@@SAPEADPEBD@Z 
env_pth=?get_env_path@AFire@@SAPEADPEBD@Z 
test_1=?test_1@AFire@@SAXAEAVarray@af@@0@Z 
sparse_mat_vec_mul=?sparse_mat_vec_mul@AFire@@SAXPEAPEAXPEAX111@Z
sparse_sks_mat_vec_mul=?sparse_sks_mat_vec_mul@AFire@@SAXPEAPEAXPEAX11@Z 


SELgj_f=?SELgj_f@AFire@@SAXPEAPEAXPEAX1@Z
SELgj_c=?SELgj_c@AFire@@SAXPEAPEAXPEAX1@Z 
SELgj_cL=?SELgj_c@AFire@@SAXPEAPEAXPEAX@Z
SELgj_f2d=?SELgj_f2d@AFire@@SAXPEAPEAXPEAX1@Z 
SELgj_c2d=?SELgj_c2d@AFire@@SAXPEAPEAXPEAX1@Z 

SEL_gc=?SEL_gc@AFire@@SAXPEAPEAXPEAX1N@Z
SELgc_sparse=?SELgc_sparse@AFire@@SAXPEAPEAXPEAX111N@Z
SELgc_sparse_sks=?SELgc_sparse_sks@AFire@@SAXPEAPEAXPEAX11N@Z

fac_chol_c=?fac_chol_c@AFire@@SAXPEAPEAXPEAX@Z 
fac_chol_cL=?fac_chol_c@AFire@@SAXPEAX@Z
SELchol_c=?SELchol_c@AFire@@SAXPEAPEAXPEAX1@Z 
SELchol_cL=?SELchol_c@AFire@@SAXPEAX0@Z 
sparse_copy_A_to_initL=?sparse_copy_A_to_initL@AFire@@SAXPEAX00000@Z
fac_sparse_chol_c=?fac_sparse_chol_c@AFire@@SAXPEAX00000@Z 
fac_sparse_chol_cL=?fac_sparse_chol_c@AFire@@SAXPEAX00@Z 
SELchol_sparse_c=?SELchol_sparse_c@AFire@@SAXPEAPEAXPEAX111111@Z
SELchol_sparse_L=?SELchol_sparse_c@AFire@@SAXPEAPEAXPEAX111@Z 
SELchol_sparse_cL=?SELchol_sparse_c@AFire@@SAXPEAX000@Z 
fac_sparse_chol_sks=?fac_sparse_chol_sks@AFire@@SAXPEAX0@Z 
SELchol_sparse_sks=?SELchol_sparse_sks@AFire@@SAXPEAPEAXPEAX11@Z
SELchol_sparse_sksL=?SELchol_sparse_sks@AFire@@SAXPEAX00@Z 


fac_ldlt_c=?fac_ldlt_c@AFire@@SAXPEAPEAXPEAX@Z
fac_ldlt_cL=?fac_ldlt_c@AFire@@SAXPEAX@Z 
SELldlt_c=?SELldlt_c@AFire@@SAXPEAPEAXPEAX1@Z 
SELldlt_cL=?SELldlt_c@AFire@@SAXPEAX0@Z 
fac_sparse_ldlt_c=?fac_sparse_ldlt_c@AFire@@SAXPEAX00000@Z
fac_sparse_ldlt_cL=?fac_sparse_ldlt_c@AFire@@SAXPEAX00@Z 
SELldlt_sparse_c=?SELldlt_sparse_c@AFire@@SAXPEAPEAXPEAX111111@Z
SELldlt_sparse_L=?SELldlt_sparse_c@AFire@@SAXPEAPEAXPEAX111@Z
SELldlt_sparse_cL=?SELldlt_sparse_c@AFire@@SAXPEAX000@Z 
fac_sparse_ldlt_sks=?fac_sparse_ldlt_sks@AFire@@SAXPEAX0@Z 
SELldlt_sparse_sks=?SELldlt_sparse_sks@AFire@@SAXPEAPEAXPEAX11@Z
SELldlt_sparse_sksL=?SELldlt_sparse_sks@AFire@@SAXPEAX00@Z 


SELgj_c_test=?SELgj_c_test@AFire@@SANPEAX0@Z
global_sync_test=?global_sync_test@AFire@@SAXPEAPEAXPEAX1@Z
af_add_time=?af_add_time@AFire@@SANPEAX0@Z
sumaaf_time=?sumaaf_time@AFire@@SANPEAX0@Z 
SELchol_sparse_sks_time=?SELchol_sparse_sks_time@AFire@@SANPEAX00@Z
sks_util_1=?sks_util_1@AFire@@SAXPEAPEAXPEAX1@Z
sks_util_2=?sks_util_2@AFire@@SAXPEAX0000@Z 
csc_util_1=?csc_util_1@AFire@@SAXPEAPEAXPEAX1@Z 
csc_util_2=?csc_util_2@AFire@@SAXPEAPEAXPEAX1@Z 
csc_util_3=?csc_util_3@AFire@@SAXPEAX0@Z
csc_util_4=?csc_util_4@AFire@@SAXPEAX00000@Z 